target datalayout = "e-m:e-p270:32:32-p271:32:32-p272:64:64-i64:64-i128:128-f80:128-n8:16:32:64-S128"
target triple = "x86_64-pc-linux-gnu"

%struct.aiString = type { i32, [1024 x i8] }
%class.aiVector3t = type { float, float, float }
%struct.aiNodeAnim = type { %struct.aiString, i32, ptr, i32, ptr, i32, ptr, i32, i32 }
%struct.aiVectorKey = type { double, %class.aiVector3t, i32 }
%struct.aiQuatKey = type <{ double, %class.aiQuaterniont, i32, [4 x i8] }>
%class.aiQuaterniont = type { float, float, float, float }

; Function Attrs: mustprogress nounwind uwtable
define hidden void @_ZN6Assimp21MakeLeftHandedProcess16ProcessAnimationEP10aiNodeAnim(ptr noundef nonnull align 8 dereferenceable(24) %0, ptr noundef %1) #0 align 2 {
  %3 = alloca ptr, align 8
  %4 = alloca ptr, align 8
  %5 = alloca i32, align 4
  %6 = alloca i32, align 4
  store ptr %0, ptr %3, align 8
  store ptr %1, ptr %4, align 8
  call void @llvm.lifetime.start.p0(i64 4, ptr %5) #12
  store i32 0, ptr %5, align 4
  br label %7

7:                                                ; preds = %25, %2
  %8 = load i32, ptr %5, align 4
  %9 = load ptr, ptr %4, align 8
  %10 = getelementptr inbounds nuw %struct.aiNodeAnim, ptr %9, i32 0, i32 1
  %11 = load i32, ptr %10, align 4
  %12 = icmp ult i32 %8, %11
  br i1 %12, label %14, label %13

13:                                               ; preds = %7
  call void @llvm.lifetime.end.p0(i64 4, ptr %5) #12
  br label %28

14:                                               ; preds = %7
  %15 = load ptr, ptr %4, align 8
  %16 = getelementptr inbounds nuw %struct.aiNodeAnim, ptr %15, i32 0, i32 2
  %17 = load ptr, ptr %16, align 8
  %18 = load i32, ptr %5, align 4
  %19 = zext i32 %18 to i64
  %20 = getelementptr inbounds nuw %struct.aiVectorKey, ptr %17, i64 %19
  %21 = getelementptr inbounds nuw %struct.aiVectorKey, ptr %20, i32 0, i32 1
  %22 = getelementptr inbounds nuw %class.aiVector3t, ptr %21, i32 0, i32 2
  %23 = load float, ptr %22, align 8
  %24 = fmul float %23, -1.000000e+00
  store float %24, ptr %22, align 8
  br label %25

25:                                               ; preds = %14
  %26 = load i32, ptr %5, align 4
  %27 = add i32 %26, 1
  store i32 %27, ptr %5, align 4
  br label %7, !llvm.loop !16

28:                                               ; preds = %13
  call void @llvm.lifetime.start.p0(i64 4, ptr %6) #12
  store i32 0, ptr %6, align 4
  br label %29

29:                                               ; preds = %57, %28
  %30 = load i32, ptr %6, align 4
  %31 = load ptr, ptr %4, align 8
  %32 = getelementptr inbounds nuw %struct.aiNodeAnim, ptr %31, i32 0, i32 3
  %33 = load i32, ptr %32, align 8
  %34 = icmp ult i32 %30, %33
  br i1 %34, label %36, label %35

35:                                               ; preds = %29
  call void @llvm.lifetime.end.p0(i64 4, ptr %6) #12
  br label %60

36:                                               ; preds = %29
  %37 = load ptr, ptr %4, align 8
  %38 = getelementptr inbounds nuw %struct.aiNodeAnim, ptr %37, i32 0, i32 4
  %39 = load ptr, ptr %38, align 8
  %40 = load i32, ptr %6, align 4
  %41 = zext i32 %40 to i64
  %42 = getelementptr inbounds nuw %struct.aiQuatKey, ptr %39, i64 %41
  %43 = getelementptr inbounds nuw %struct.aiQuatKey, ptr %42, i32 0, i32 1
  %44 = getelementptr inbounds nuw %class.aiQuaterniont, ptr %43, i32 0, i32 1
  %45 = load float, ptr %44, align 4
  %46 = fmul float %45, -1.000000e+00
  store float %46, ptr %44, align 4
  %47 = load ptr, ptr %4, align 8
  %48 = getelementptr inbounds nuw %struct.aiNodeAnim, ptr %47, i32 0, i32 4
  %49 = load ptr, ptr %48, align 8
  %50 = load i32, ptr %6, align 4
  %51 = zext i32 %50 to i64
  %52 = getelementptr inbounds nuw %struct.aiQuatKey, ptr %49, i64 %51
  %53 = getelementptr inbounds nuw %struct.aiQuatKey, ptr %52, i32 0, i32 1
  %54 = getelementptr inbounds nuw %class.aiQuaterniont, ptr %53, i32 0, i32 2
  %55 = load float, ptr %54, align 8
  %56 = fmul float %55, -1.000000e+00
  store float %56, ptr %54, align 8
  br label %57

57:                                               ; preds = %36
  %58 = load i32, ptr %6, align 4
  %59 = add i32 %58, 1
  store i32 %59, ptr %6, align 4
  br label %29, !llvm.loop !17

60:                                               ; preds = %35
  ret void
}