; Function Attrs: mustprogress nofree norecurse nosync nounwind memory(readwrite, inaccessiblemem: none) uwtable
define hidden void @_ZN6Assimp21MakeLeftHandedProcess16ProcessAnimationEP10aiNodeAnim(ptr noundef nonnull readnone align 8 captures(none) dereferenceable(24) %0, ptr noundef readonly captures(none) %1) local_unnamed_addr #6 align 2 {
  %3 = getelementptr inbounds nuw i8, ptr %1, i64 1028
  %4 = load i32, ptr %3, align 4
  %.not = icmp eq i32 %4, 0
  br i1 %.not, label %.preheader, label %.lr.ph

.lr.ph:                                           ; preds = %2
  %5 = getelementptr inbounds nuw i8, ptr %1, i64 1032
  br label %9

.preheader:                                       ; preds = %9, %2
  %6 = getelementptr inbounds nuw i8, ptr %1, i64 1040
  %7 = load i32, ptr %6, align 8
  %.not15 = icmp eq i32 %7, 0
  br i1 %.not15, label %._crit_edge, label %.lr.ph14

.lr.ph14:                                         ; preds = %.preheader
  %8 = getelementptr inbounds nuw i8, ptr %1, i64 1048
  br label %17

9:                                                ; preds = %.lr.ph, %9
  %indvars.iv = phi i64 [ 0, %.lr.ph ], [ %indvars.iv.next, %9 ]
  %10 = load ptr, ptr %5, align 8
  %11 = getelementptr inbounds nuw %struct.aiVectorKey, ptr %10, i64 %indvars.iv, i32 1, i32 2
  %12 = load float, ptr %11, align 8
  %13 = fneg float %12
  store float %13, ptr %11, align 8
  %indvars.iv.next = add nuw nsw i64 %indvars.iv, 1
  %14 = load i32, ptr %3, align 4
  %15 = zext i32 %14 to i64
  %16 = icmp samesign ult i64 %indvars.iv.next, %15
  br i1 %16, label %9, label %.preheader, !llvm.loop !8

._crit_edge:                                      ; preds = %17, %.preheader
  ret void

17:                                               ; preds = %.lr.ph14, %17
  %indvars.iv17 = phi i64 [ 0, %.lr.ph14 ], [ %indvars.iv.next18, %17 ]
  %18 = load ptr, ptr %8, align 8
  %19 = getelementptr inbounds nuw %struct.aiQuatKey, ptr %18, i64 %indvars.iv17, i32 1, i32 1
  %20 = load float, ptr %19, align 4
  %21 = fneg float %20
  store float %21, ptr %19, align 4
  %22 = load ptr, ptr %8, align 8
  %23 = getelementptr inbounds nuw %struct.aiQuatKey, ptr %22, i64 %indvars.iv17, i32 1, i32 2
  %24 = load float, ptr %23, align 8
  %25 = fneg float %24
  store float %25, ptr %23, align 8
  %indvars.iv.next18 = add nuw nsw i64 %indvars.iv17, 1
  %26 = load i32, ptr %6, align 8
  %27 = zext i32 %26 to i64
  %28 = icmp samesign ult i64 %indvars.iv.next18, %27
  br i1 %28, label %17, label %._crit_edge, !llvm.loop !9
}